target datalayout = "e-m:e-p270:32:32-p271:32:32-p272:64:64-i64:64-i128:128-f80:128-n8:16:32:64-S128"
target triple = "x86_64-pc-linux-gnu"

%struct._dumpOptions = type { %struct._connParams, i32, i32, i8, ptr, i32, i32, i32, i32, i32, i32, i32, i32, i32, i32, i32, i32, i32, i32, i32, i32, i32, i8, i32, i32, i8, i8, i32, ptr, i32, i32, i8, i8 }
%struct._connParams = type { ptr, ptr, ptr, ptr, i32, ptr }
%struct.CatalogId = type { i32, i32 }
%struct.Archive = type { ptr, ptr, i32, ptr, i32, i8, i32, i32, i32, ptr, i32, i8, ptr, ptr, i8, i32, ptr }
%struct.PQExpBufferData = type { ptr, i64, i64 }
%struct._dumpableAcl = type { ptr, ptr, i8, ptr }
%struct._archiveOpts = type { ptr, ptr, ptr, ptr, i8, ptr, ptr, i32, ptr, ptr, ptr, ptr, i32, ptr, ptr }

@nilCatalogId = internal constant %struct.CatalogId zeroinitializer, align 4
@.str.416 = private unnamed_addr constant [6 x i8] c"%s %s\00", align 1
@.str.720 = private unnamed_addr constant [13 x i8] c"LARGE OBJECT\00", align 1
@.str.721 = private unnamed_addr constant [63 x i8] c"SELECT pg_catalog.binary_upgrade_set_record_init_privs(true);\0A\00", align 1
@.str.722 = private unnamed_addr constant [1 x i8] zeroinitializer, align 1
@.str.723 = private unnamed_addr constant [75 x i8] c"could not parse initial ACL list (%s) or default (%s) for object \22%s\22 (%s)\00", align 1
@.str.724 = private unnamed_addr constant [64 x i8] c"SELECT pg_catalog.binary_upgrade_set_record_init_privs(false);\0A\00", align 1
@.str.725 = private unnamed_addr constant [67 x i8] c"could not parse ACL list (%s) or default (%s) for object \22%s\22 (%s)\00", align 1
@.str.726 = private unnamed_addr constant [13 x i8] c"COLUMN %s.%s\00", align 1
@.str.727 = private unnamed_addr constant [4 x i8] c"ACL\00", align 1

; Function Attrs: nounwind uwtable
define internal i32 @dumpACL(ptr noundef %0, i32 noundef %1, i32 noundef %2, ptr noundef %3, ptr noundef %4, ptr noundef %5, ptr noundef %6, ptr noundef %7, ptr noundef %8, ptr noundef %9) #0 {
  %11 = alloca i32, align 4
  %12 = alloca ptr, align 8
  %13 = alloca i32, align 4
  %14 = alloca i32, align 4
  %15 = alloca ptr, align 8
  %16 = alloca ptr, align 8
  %17 = alloca ptr, align 8
  %18 = alloca ptr, align 8
  %19 = alloca ptr, align 8
  %20 = alloca ptr, align 8
  %21 = alloca ptr, align 8
  %22 = alloca i32, align 4
  %23 = alloca ptr, align 8
  %24 = alloca ptr, align 8
  %25 = alloca ptr, align 8
  %26 = alloca i8, align 1
  %27 = alloca ptr, align 8
  %28 = alloca ptr, align 8
  %29 = alloca ptr, align 8
  %30 = alloca i32, align 4
  %31 = alloca ptr, align 8
  %32 = alloca [2 x i32], align 4
  %33 = alloca i32, align 4
  %34 = alloca %struct._archiveOpts, align 8
  store ptr %0, ptr %12, align 8
  store i32 %1, ptr %13, align 4
  store i32 %2, ptr %14, align 4
  store ptr %3, ptr %15, align 8
  store ptr %4, ptr %16, align 8
  store ptr %5, ptr %17, align 8
  store ptr %6, ptr %18, align 8
  store ptr %7, ptr %19, align 8
  store ptr %8, ptr %20, align 8
  store ptr %9, ptr %21, align 8
  call void @llvm.lifetime.start.p0(i64 4, ptr %22) #10
  store i32 0, ptr %22, align 4
  call void @llvm.lifetime.start.p0(i64 8, ptr %23) #10
  %35 = load ptr, ptr %12, align 8
  %36 = getelementptr inbounds nuw %struct.Archive, ptr %35, i32 0, i32 0
  %37 = load ptr, ptr %36, align 8
  store ptr %37, ptr %23, align 8
  call void @llvm.lifetime.start.p0(i64 8, ptr %24) #10
  %38 = load ptr, ptr %21, align 8
  %39 = getelementptr inbounds nuw %struct._dumpableAcl, ptr %38, i32 0, i32 0
  %40 = load ptr, ptr %39, align 8
  store ptr %40, ptr %24, align 8
  call void @llvm.lifetime.start.p0(i64 8, ptr %25) #10
  %41 = load ptr, ptr %21, align 8
  %42 = getelementptr inbounds nuw %struct._dumpableAcl, ptr %41, i32 0, i32 1
  %43 = load ptr, ptr %42, align 8
  store ptr %43, ptr %25, align 8
  call void @llvm.lifetime.start.p0(i64 1, ptr %26) #10
  %44 = load ptr, ptr %21, align 8
  %45 = getelementptr inbounds nuw %struct._dumpableAcl, ptr %44, i32 0, i32 2
  %46 = load i8, ptr %45, align 8
  store i8 %46, ptr %26, align 1
  call void @llvm.lifetime.start.p0(i64 8, ptr %27) #10
  %47 = load ptr, ptr %21, align 8
  %48 = getelementptr inbounds nuw %struct._dumpableAcl, ptr %47, i32 0, i32 3
  %49 = load ptr, ptr %48, align 8
  store ptr %49, ptr %27, align 8
  call void @llvm.lifetime.start.p0(i64 8, ptr %28) #10
  call void @llvm.lifetime.start.p0(i64 8, ptr %29) #10
  %50 = load ptr, ptr %23, align 8
  %51 = getelementptr inbounds nuw %struct._dumpOptions, ptr %50, i32 0, i32 3
  %52 = load i8, ptr %51, align 8, !range !6, !noundef !7
  %53 = trunc i8 %52 to i1
  br i1 %53, label %54, label %55

54:                                               ; preds = %10
  store i32 0, ptr %11, align 4
  store i32 1, ptr %30, align 4
  br label %226

55:                                               ; preds = %10
  %56 = load ptr, ptr %23, align 8
  %57 = getelementptr inbounds nuw %struct._dumpOptions, ptr %56, i32 0, i32 31
  %58 = load i8, ptr %57, align 8, !range !6, !noundef !7
  %59 = trunc i8 %58 to i1
  br i1 %59, label %65, label %60

60:                                               ; preds = %55
  %61 = load ptr, ptr %15, align 8
  %62 = call i32 @strcmp(ptr noundef %61, ptr noundef @.str.720) #11
  %63 = icmp ne i32 %62, 0
  br i1 %63, label %64, label %65

64:                                               ; preds = %60
  store i32 0, ptr %11, align 4
  store i32 1, ptr %30, align 4
  br label %226

65:                                               ; preds = %60, %55
  %66 = call ptr @createPQExpBuffer()
  store ptr %66, ptr %29, align 8
  %67 = load ptr, ptr %23, align 8
  %68 = getelementptr inbounds nuw %struct._dumpOptions, ptr %67, i32 0, i32 1
  %69 = load i32, ptr %68, align 8
  %70 = icmp ne i32 %69, 0
  br i1 %70, label %71, label %107

71:                                               ; preds = %65
  %72 = load i8, ptr %26, align 1
  %73 = sext i8 %72 to i32
  %74 = icmp eq i32 %73, 101
  br i1 %74, label %75, label %107

75:                                               ; preds = %71
  %76 = load ptr, ptr %27, align 8
  %77 = icmp ne ptr %76, null
  br i1 %77, label %78, label %107

78:                                               ; preds = %75
  %79 = load ptr, ptr %27, align 8
  %80 = load i8, ptr %79, align 1
  %81 = sext i8 %80 to i32
  %82 = icmp ne i32 %81, 0
  br i1 %82, label %83, label %107

83:                                               ; preds = %78
  %84 = load ptr, ptr %29, align 8
  call void @appendPQExpBufferStr(ptr noundef %84, ptr noundef @.str.721)
  %85 = load ptr, ptr %16, align 8
  %86 = load ptr, ptr %17, align 8
  %87 = load ptr, ptr %18, align 8
  %88 = load ptr, ptr %15, align 8
  %89 = load ptr, ptr %27, align 8
  %90 = load ptr, ptr %25, align 8
  %91 = load ptr, ptr %20, align 8
  %92 = load ptr, ptr %12, align 8
  %93 = getelementptr inbounds nuw %struct.Archive, ptr %92, i32 0, i32 4
  %94 = load i32, ptr %93, align 8
  %95 = load ptr, ptr %29, align 8
  %96 = call zeroext i1 @buildACLCommands(ptr noundef %85, ptr noundef %86, ptr noundef %87, ptr noundef %88, ptr noundef %89, ptr noundef %90, ptr noundef %91, ptr noundef @.str.722, i32 noundef %94, ptr noundef %95)
  br i1 %96, label %105, label %97

97:                                               ; preds = %83
  br label %98

98:                                               ; preds = %97
  %99 = load ptr, ptr %27, align 8
  %100 = load ptr, ptr %25, align 8
  %101 = load ptr, ptr %16, align 8
  %102 = load ptr, ptr %15, align 8
  call void (i32, i32, ptr, ...) @pg_log_generic(i32 noundef 4, i32 noundef 0, ptr noundef @.str.723, ptr noundef %99, ptr noundef %100, ptr noundef %101, ptr noundef %102)
  call void @exit_nicely(i32 noundef 1) #12
  unreachable

103:                                              ; No predecessors!
  br label %104

104:                                              ; preds = %103
  br label %105

105:                                              ; preds = %104, %83
  %106 = load ptr, ptr %29, align 8
  call void @appendPQExpBufferStr(ptr noundef %106, ptr noundef @.str.724)
  br label %107

107:                                              ; preds = %105, %78, %75, %71, %65
  %108 = load ptr, ptr %27, align 8
  %109 = icmp ne ptr %108, null
  br i1 %109, label %110, label %127

110:                                              ; preds = %107
  %111 = load ptr, ptr %27, align 8
  %112 = load i8, ptr %111, align 1
  %113 = sext i8 %112 to i32
  %114 = icmp ne i32 %113, 0
  br i1 %114, label %115, label %127

115:                                              ; preds = %110
  %116 = load ptr, ptr %27, align 8
  store ptr %116, ptr %28, align 8
  %117 = load ptr, ptr %24, align 8
  %118 = icmp eq ptr %117, null
  br i1 %118, label %124, label %119

119:                                              ; preds = %115
  %120 = load ptr, ptr %24, align 8
  %121 = load i8, ptr %120, align 1
  %122 = sext i8 %121 to i32
  %123 = icmp eq i32 %122, 0
  br i1 %123, label %124, label %126

124:                                              ; preds = %119, %115
  %125 = load ptr, ptr %25, align 8
  store ptr %125, ptr %24, align 8
  br label %126

126:                                              ; preds = %124, %119
  br label %129

127:                                              ; preds = %110, %107
  %128 = load ptr, ptr %25, align 8
  store ptr %128, ptr %28, align 8
  br label %129

129:                                              ; preds = %127, %126
  %130 = load ptr, ptr %16, align 8
  %131 = load ptr, ptr %17, align 8
  %132 = load ptr, ptr %18, align 8
  %133 = load ptr, ptr %15, align 8
  %134 = load ptr, ptr %24, align 8
  %135 = load ptr, ptr %28, align 8
  %136 = load ptr, ptr %20, align 8
  %137 = load ptr, ptr %12, align 8
  %138 = getelementptr inbounds nuw %struct.Archive, ptr %137, i32 0, i32 4
  %139 = load i32, ptr %138, align 8
  %140 = load ptr, ptr %29, align 8
  %141 = call zeroext i1 @buildACLCommands(ptr noundef %130, ptr noundef %131, ptr noundef %132, ptr noundef %133, ptr noundef %134, ptr noundef %135, ptr noundef %136, ptr noundef @.str.722, i32 noundef %139, ptr noundef %140)
  br i1 %141, label %150, label %142

142:                                              ; preds = %129
  br label %143

143:                                              ; preds = %142
  %144 = load ptr, ptr %24, align 8
  %145 = load ptr, ptr %28, align 8
  %146 = load ptr, ptr %16, align 8
  %147 = load ptr, ptr %15, align 8
  call void (i32, i32, ptr, ...) @pg_log_generic(i32 noundef 4, i32 noundef 0, ptr noundef @.str.725, ptr noundef %144, ptr noundef %145, ptr noundef %146, ptr noundef %147)
  call void @exit_nicely(i32 noundef 1) #12
  unreachable

148:                                              ; No predecessors!
  br label %149

149:                                              ; preds = %148
  br label %150

150:                                              ; preds = %149, %129
  %151 = load ptr, ptr %29, align 8
  %152 = getelementptr inbounds nuw %struct.PQExpBufferData, ptr %151, i32 0, i32 1
  %153 = load i64, ptr %152, align 8
  %154 = icmp ugt i64 %153, 0
  br i1 %154, label %155, label %223

155:                                              ; preds = %150
  call void @llvm.lifetime.start.p0(i64 8, ptr %31) #10
  %156 = call ptr @createPQExpBuffer()
  store ptr %156, ptr %31, align 8
  call void @llvm.lifetime.start.p0(i64 8, ptr %32) #10
  call void @llvm.lifetime.start.p0(i64 4, ptr %33) #10
  store i32 0, ptr %33, align 4
  %157 = load ptr, ptr %19, align 8
  %158 = icmp ne ptr %157, null
  br i1 %158, label %159, label %162

159:                                              ; preds = %155
  %160 = load ptr, ptr %31, align 8
  %161 = load ptr, ptr %19, align 8
  call void @appendPQExpBufferStr(ptr noundef %160, ptr noundef %161)
  br label %174

162:                                              ; preds = %155
  %163 = load ptr, ptr %17, align 8
  %164 = icmp ne ptr %163, null
  br i1 %164, label %165, label %169

165:                                              ; preds = %162
  %166 = load ptr, ptr %31, align 8
  %167 = load ptr, ptr %16, align 8
  %168 = load ptr, ptr %17, align 8
  call void (ptr, ptr, ...) @appendPQExpBuffer(ptr noundef %166, ptr noundef @.str.726, ptr noundef %167, ptr noundef %168)
  br label %173

169:                                              ; preds = %162
  %170 = load ptr, ptr %31, align 8
  %171 = load ptr, ptr %15, align 8
  %172 = load ptr, ptr %16, align 8
  call void (ptr, ptr, ...) @appendPQExpBuffer(ptr noundef %170, ptr noundef @.str.416, ptr noundef %171, ptr noundef %172)
  br label %173

173:                                              ; preds = %169, %165
  br label %174

174:                                              ; preds = %173, %159
  %175 = load i32, ptr %13, align 4
  %176 = load i32, ptr %33, align 4
  %177 = add i32 %176, 1
  store i32 %177, ptr %33, align 4
  %178 = sext i32 %176 to i64
  %179 = getelementptr inbounds [2 x i32], ptr %32, i64 0, i64 %178
  store i32 %175, ptr %179, align 4
  %180 = load i32, ptr %14, align 4
  %181 = icmp ne i32 %180, 0
  br i1 %181, label %182, label %188

182:                                              ; preds = %174
  %183 = load i32, ptr %14, align 4
  %184 = load i32, ptr %33, align 4
  %185 = add i32 %184, 1
  store i32 %185, ptr %33, align 4
  %186 = sext i32 %184 to i64
  %187 = getelementptr inbounds [2 x i32], ptr %32, i64 0, i64 %186
  store i32 %183, ptr %187, align 4
  br label %188

188:                                              ; preds = %182, %174
  %189 = call i32 @createDumpId()
  store i32 %189, ptr %22, align 4
  %190 = load ptr, ptr %12, align 8
  %191 = load i32, ptr %22, align 4
  %192 = getelementptr inbounds nuw %struct._archiveOpts, ptr %34, i32 0, i32 0
  %193 = load ptr, ptr %31, align 8
  %194 = getelementptr inbounds nuw %struct.PQExpBufferData, ptr %193, i32 0, i32 0
  %195 = load ptr, ptr %194, align 8
  store ptr %195, ptr %192, align 8
  %196 = getelementptr inbounds nuw %struct._archiveOpts, ptr %34, i32 0, i32 1
  %197 = load ptr, ptr %18, align 8
  store ptr %197, ptr %196, align 8
  %198 = getelementptr inbounds nuw %struct._archiveOpts, ptr %34, i32 0, i32 2
  store ptr null, ptr %198, align 8
  %199 = getelementptr inbounds nuw %struct._archiveOpts, ptr %34, i32 0, i32 3
  store ptr null, ptr %199, align 8
  %200 = getelementptr inbounds nuw %struct._archiveOpts, ptr %34, i32 0, i32 4
  store i8 0, ptr %200, align 8
  %201 = getelementptr i8, ptr %34, i64 33
  call void @llvm.memset.p0.i64(ptr align 1 %201, i8 0, i64 7, i1 false)
  %202 = getelementptr inbounds nuw %struct._archiveOpts, ptr %34, i32 0, i32 5
  %203 = load ptr, ptr %20, align 8
  store ptr %203, ptr %202, align 8
  %204 = getelementptr inbounds nuw %struct._archiveOpts, ptr %34, i32 0, i32 6
  store ptr @.str.727, ptr %204, align 8
  %205 = getelementptr inbounds nuw %struct._archiveOpts, ptr %34, i32 0, i32 7
  store i32 1, ptr %205, align 8
  %206 = getelementptr i8, ptr %34, i64 60
  call void @llvm.memset.p0.i64(ptr align 4 %206, i8 0, i64 4, i1 false)
  %207 = getelementptr inbounds nuw %struct._archiveOpts, ptr %34, i32 0, i32 8
  %208 = load ptr, ptr %29, align 8
  %209 = getelementptr inbounds nuw %struct.PQExpBufferData, ptr %208, i32 0, i32 0
  %210 = load ptr, ptr %209, align 8
  store ptr %210, ptr %207, align 8
  %211 = getelementptr inbounds nuw %struct._archiveOpts, ptr %34, i32 0, i32 9
  store ptr null, ptr %211, align 8
  %212 = getelementptr inbounds nuw %struct._archiveOpts, ptr %34, i32 0, i32 10
  store ptr null, ptr %212, align 8
  %213 = getelementptr inbounds nuw %struct._archiveOpts, ptr %34, i32 0, i32 11
  %214 = getelementptr inbounds [2 x i32], ptr %32, i64 0, i64 0
  store ptr %214, ptr %213, align 8
  %215 = getelementptr inbounds nuw %struct._archiveOpts, ptr %34, i32 0, i32 12
  %216 = load i32, ptr %33, align 4
  store i32 %216, ptr %215, align 8
  %217 = getelementptr i8, ptr %34, i64 100
  call void @llvm.memset.p0.i64(ptr align 4 %217, i8 0, i64 4, i1 false)
  %218 = getelementptr inbounds nuw %struct._archiveOpts, ptr %34, i32 0, i32 13
  store ptr null, ptr %218, align 8
  %219 = getelementptr inbounds nuw %struct._archiveOpts, ptr %34, i32 0, i32 14
  store ptr null, ptr %219, align 8
  %220 = load i64, ptr @nilCatalogId, align 4
  %221 = call ptr @ArchiveEntry(ptr noundef %190, i64 %220, i32 noundef %191, ptr noundef %34)
  %222 = load ptr, ptr %31, align 8
  call void @destroyPQExpBuffer(ptr noundef %222)
  call void @llvm.lifetime.end.p0(i64 4, ptr %33) #10
  call void @llvm.lifetime.end.p0(i64 8, ptr %32) #10
  call void @llvm.lifetime.end.p0(i64 8, ptr %31) #10
  br label %223

223:                                              ; preds = %188, %150
  %224 = load ptr, ptr %29, align 8
  call void @destroyPQExpBuffer(ptr noundef %224)
  %225 = load i32, ptr %22, align 4
  store i32 %225, ptr %11, align 4
  store i32 1, ptr %30, align 4
  br label %226

226:                                              ; preds = %223, %64, %54
  call void @llvm.lifetime.end.p0(i64 8, ptr %29) #10
  call void @llvm.lifetime.end.p0(i64 8, ptr %28) #10
  call void @llvm.lifetime.end.p0(i64 8, ptr %27) #10
  call void @llvm.lifetime.end.p0(i64 1, ptr %26) #10
  call void @llvm.lifetime.end.p0(i64 8, ptr %25) #10
  call void @llvm.lifetime.end.p0(i64 8, ptr %24) #10
  call void @llvm.lifetime.end.p0(i64 8, ptr %23) #10
  call void @llvm.lifetime.end.p0(i64 4, ptr %22) #10
  %227 = load i32, ptr %11, align 4
  ret i32 %227
}