; Function Attrs: nounwind uwtable
define internal fastcc noundef i32 @dumpACL(ptr noundef %0, i32 noundef %1, i32 noundef %2, ptr noundef %3, ptr noundef %4, ptr noundef %5, ptr noundef %6, ptr noundef %7, ptr noundef %8, ptr noundef readonly captures(none) %9) unnamed_addr #5 {
  %11 = alloca [2 x i32], align 4
  %12 = alloca %struct._archiveOpts, align 8
  %13 = load ptr, ptr %0, align 8
  %14 = load ptr, ptr %9, align 8
  %15 = getelementptr inbounds nuw i8, ptr %9, i64 8
  %16 = load ptr, ptr %15, align 8
  %17 = getelementptr inbounds nuw i8, ptr %9, i64 16
  %18 = load i8, ptr %17, align 8
  %19 = getelementptr inbounds nuw i8, ptr %9, i64 24
  %20 = load ptr, ptr %19, align 8
  %21 = getelementptr inbounds nuw i8, ptr %13, i64 56
  %22 = load i8, ptr %21, align 8, !range !7, !noundef !8
  %23 = trunc nuw i8 %22 to i1
  br i1 %23, label %85, label %24

24:                                               ; preds = %10
  %25 = getelementptr inbounds nuw i8, ptr %13, i64 176
  %26 = load i8, ptr %25, align 8, !range !7, !noundef !8
  %27 = trunc nuw i8 %26 to i1
  br i1 %27, label %30, label %28

28:                                               ; preds = %24
  %29 = tail call i32 @strcmp(ptr noundef nonnull dereferenceable(1) %3, ptr noundef nonnull dereferenceable(13) @.str.720) #15
  %.not = icmp eq i32 %29, 0
  br i1 %.not, label %30, label %85

30:                                               ; preds = %28, %24
  %31 = tail call ptr @createPQExpBuffer() #14
  %32 = getelementptr inbounds nuw i8, ptr %13, i64 48
  %33 = load i32, ptr %32, align 8
  %34 = icmp ne i32 %33, 0
  %35 = icmp eq i8 %18, 101
  %or.cond = select i1 %34, i1 %35, i1 false
  %36 = icmp ne ptr %20, null
  %or.cond4 = select i1 %or.cond, i1 %36, i1 false
  br i1 %or.cond4, label %37, label %45

37:                                               ; preds = %30
  %38 = load i8, ptr %20, align 1
  %.not86 = icmp eq i8 %38, 0
  br i1 %.not86, label %.thread.thread, label %39

39:                                               ; preds = %37
  tail call void @appendPQExpBufferStr(ptr noundef %31, ptr noundef nonnull @.str.721) #14
  %40 = getelementptr inbounds nuw i8, ptr %0, i64 32
  %41 = load i32, ptr %40, align 8
  %42 = tail call zeroext i1 @buildACLCommands(ptr noundef %4, ptr noundef %5, ptr noundef %6, ptr noundef %3, ptr noundef nonnull %20, ptr noundef %16, ptr noundef %8, ptr noundef nonnull @.str.722, i32 noundef %41, ptr noundef %31) #14
  br i1 %42, label %44, label %43

43:                                               ; preds = %39
  tail call void (i32, i32, ptr, ...) @pg_log_generic(i32 noundef 4, i32 noundef 0, ptr noundef nonnull @.str.723, ptr noundef nonnull %20, ptr noundef %16, ptr noundef %4, ptr noundef %3) #14
  tail call void @exit_nicely(i32 noundef 1) #16
  unreachable

44:                                               ; preds = %39
  tail call void @appendPQExpBufferStr(ptr noundef %31, ptr noundef nonnull @.str.724) #14
  br label %.thread

45:                                               ; preds = %30
  br i1 %36, label %.thread, label %.thread.thread

.thread:                                          ; preds = %44, %45
  %.pr = load i8, ptr %20, align 1
  %.not87 = icmp eq i8 %.pr, 0
  br i1 %.not87, label %.thread.thread, label %46

46:                                               ; preds = %.thread
  %47 = icmp eq ptr %14, null
  br i1 %47, label %51, label %48

48:                                               ; preds = %46
  %49 = load i8, ptr %14, align 1
  %50 = icmp eq i8 %49, 0
  br i1 %50, label %51, label %.thread.thread

51:                                               ; preds = %48, %46
  br label %.thread.thread

.thread.thread:                                   ; preds = %37, %45, %.thread, %48, %51
  %.080 = phi ptr [ %16, %51 ], [ %14, %48 ], [ %14, %.thread ], [ %14, %45 ], [ %14, %37 ]
  %.079 = phi ptr [ %20, %51 ], [ %20, %48 ], [ %16, %.thread ], [ %16, %45 ], [ %16, %37 ]
  %52 = getelementptr inbounds nuw i8, ptr %0, i64 32
  %53 = load i32, ptr %52, align 8
  %54 = tail call zeroext i1 @buildACLCommands(ptr noundef %4, ptr noundef %5, ptr noundef %6, ptr noundef %3, ptr noundef %.080, ptr noundef %.079, ptr noundef %8, ptr noundef nonnull @.str.722, i32 noundef %53, ptr noundef %31) #14
  br i1 %54, label %56, label %55

55:                                               ; preds = %.thread.thread
  tail call void (i32, i32, ptr, ...) @pg_log_generic(i32 noundef 4, i32 noundef 0, ptr noundef nonnull @.str.725, ptr noundef %.080, ptr noundef %.079, ptr noundef %4, ptr noundef %3) #14
  tail call void @exit_nicely(i32 noundef 1) #16
  unreachable

56:                                               ; preds = %.thread.thread
  %57 = getelementptr inbounds nuw i8, ptr %31, i64 8
  %58 = load i64, ptr %57, align 8
  %.not88 = icmp eq i64 %58, 0
  br i1 %.not88, label %84, label %59

59:                                               ; preds = %56
  %60 = tail call ptr @createPQExpBuffer() #14
  call void @llvm.lifetime.start.p0(i64 8, ptr nonnull %11) #14
  %.not89 = icmp eq ptr %7, null
  br i1 %.not89, label %62, label %61

61:                                               ; preds = %59
  tail call void @appendPQExpBufferStr(ptr noundef %60, ptr noundef nonnull %7) #14
  br label %65

62:                                               ; preds = %59
  %.not90 = icmp eq ptr %5, null
  br i1 %.not90, label %64, label %63

63:                                               ; preds = %62
  tail call void (ptr, ptr, ...) @appendPQExpBuffer(ptr noundef %60, ptr noundef nonnull @.str.726, ptr noundef %4, ptr noundef nonnull %5) #14
  br label %65

64:                                               ; preds = %62
  tail call void (ptr, ptr, ...) @appendPQExpBuffer(ptr noundef %60, ptr noundef nonnull @.str.416, ptr noundef %3, ptr noundef %4) #14
  br label %65

65:                                               ; preds = %63, %64, %61
  store i32 %1, ptr %11, align 4
  %.not91 = icmp eq i32 %2, 0
  br i1 %.not91, label %68, label %66

66:                                               ; preds = %65
  %67 = getelementptr inbounds nuw i8, ptr %11, i64 4
  store i32 %2, ptr %67, align 4
  br label %68

68:                                               ; preds = %66, %65
  %.0 = phi i32 [ 2, %66 ], [ 1, %65 ]
  %69 = tail call i32 @createDumpId() #14
  %70 = load ptr, ptr %60, align 8
  store ptr %70, ptr %12, align 8
  %71 = getelementptr inbounds nuw i8, ptr %12, i64 8
  store ptr %6, ptr %71, align 8
  %72 = getelementptr inbounds nuw i8, ptr %12, i64 16
  %73 = getelementptr inbounds nuw i8, ptr %12, i64 40
  call void @llvm.memset.p0.i64(ptr noundef nonnull align 8 dereferenceable(24) %72, i8 0, i64 24, i1 false)
  store ptr %8, ptr %73, align 8
  %74 = getelementptr inbounds nuw i8, ptr %12, i64 48
  store ptr @.str.727, ptr %74, align 8
  %75 = getelementptr inbounds nuw i8, ptr %12, i64 56
  store i32 1, ptr %75, align 8
  %76 = getelementptr inbounds nuw i8, ptr %12, i64 60
  store i32 0, ptr %76, align 4
  %77 = getelementptr inbounds nuw i8, ptr %12, i64 64
  %78 = load ptr, ptr %31, align 8
  store ptr %78, ptr %77, align 8
  %79 = getelementptr inbounds nuw i8, ptr %12, i64 72
  %80 = getelementptr inbounds nuw i8, ptr %12, i64 88
  call void @llvm.memset.p0.i64(ptr noundef nonnull align 8 dereferenceable(16) %79, i8 0, i64 16, i1 false)
  store ptr %11, ptr %80, align 8
  %81 = getelementptr inbounds nuw i8, ptr %12, i64 96
  store i32 %.0, ptr %81, align 8
  %82 = getelementptr inbounds nuw i8, ptr %12, i64 100
  call void @llvm.memset.p0.i64(ptr noundef nonnull align 4 dereferenceable(20) %82, i8 0, i64 20, i1 false)
  %83 = call ptr @ArchiveEntry(ptr noundef nonnull %0, i64 0, i32 noundef %69, ptr noundef nonnull %12) #14
  call void @destroyPQExpBuffer(ptr noundef nonnull %60) #14
  call void @llvm.lifetime.end.p0(i64 8, ptr nonnull %11) #14
  br label %84

84:                                               ; preds = %68, %56
  %.078 = phi i32 [ %69, %68 ], [ 0, %56 ]
  call void @destroyPQExpBuffer(ptr noundef nonnull %31) #14
  br label %85

85:                                               ; preds = %28, %10, %84
  %.077 = phi i32 [ %.078, %84 ], [ 0, %10 ], [ 0, %28 ]
  ret i32 %.077
}